; Function Attrs: nounwind uwtable
define dso_local ptr @select_g_step_pick_nodes(ptr noundef %0, ptr noundef readonly captures(none) %1, i32 noundef %2, ptr noundef %3) local_unnamed_addr #0 {
  %5 = load ptr, ptr @ops, align 8
  %6 = load i32, ptr @select_context_default, align 4
  %7 = sext i32 %6 to i64
  %8 = getelementptr inbounds %struct.slurm_select_ops_t, ptr %5, i64 %7, i32 13
  %9 = load ptr, ptr %8, align 8
  %10 = load ptr, ptr %1, align 8
  %11 = tail call ptr %9(ptr noundef %0, ptr noundef %10, i32 noundef %2, ptr noundef %3) #15
  ret ptr %11
}